; Function Attrs: nofree norecurse nosync nounwind memory(readwrite, inaccessiblemem: none) uwtable
define void @Kit_SopMakeCubeFree(ptr noundef readonly captures(none) %0) local_unnamed_addr #0 {
  %2 = getelementptr i8, ptr %0, i64 4
  %.val.i = load i32, ptr %2, align 4, !tbaa !3
  %3 = icmp sgt i32 %.val.i, 0
  br i1 %3, label %.lr.ph.i, label %.critedge

.lr.ph.i:                                         ; preds = %1
  %4 = getelementptr i8, ptr %0, i64 8
  %.val9.i = load ptr, ptr %4, align 8, !tbaa !12
  %wide.trip.count.i = zext nneg i32 %.val.i to i64
  br label %5

5:                                                ; preds = %8, %.lr.ph.i
  %indvars.iv.i = phi i64 [ 0, %.lr.ph.i ], [ %indvars.iv.next.i, %8 ]
  %.0710.i = phi i32 [ -1, %.lr.ph.i ], [ %9, %8 ]
  %6 = getelementptr inbounds nuw i32, ptr %.val9.i, i64 %indvars.iv.i
  %7 = load i32, ptr %6, align 4, !tbaa !15
  %.not.i = icmp eq i32 %7, 0
  br i1 %.not.i, label %Kit_SopCommonCube.exit, label %8

8:                                                ; preds = %5
  %9 = and i32 %7, %.0710.i
  %indvars.iv.next.i = add nuw nsw i64 %indvars.iv.i, 1
  %exitcond.not.i = icmp eq i64 %indvars.iv.next.i, %wide.trip.count.i
  br i1 %exitcond.not.i, label %Kit_SopCommonCube.exit, label %5, !llvm.loop !29

Kit_SopCommonCube.exit:                           ; preds = %5, %8
  %.07.lcssa.i = phi i32 [ %9, %8 ], [ %.0710.i, %5 ]
  %10 = icmp eq i32 %.07.lcssa.i, 0
  br i1 %10, label %.critedge, label %.lr.ph

.lr.ph:                                           ; preds = %Kit_SopCommonCube.exit
  %11 = getelementptr i8, ptr %0, i64 8
  %.val12 = load ptr, ptr %11, align 8, !tbaa !12
  %12 = xor i32 %.07.lcssa.i, -1
  br label %13

13:                                               ; preds = %.lr.ph, %16
  %indvars.iv = phi i64 [ 0, %.lr.ph ], [ %indvars.iv.next, %16 ]
  %14 = getelementptr inbounds nuw i32, ptr %.val12, i64 %indvars.iv
  %15 = load i32, ptr %14, align 4, !tbaa !15
  %.not = icmp eq i32 %15, 0
  br i1 %.not, label %.critedge, label %16

16:                                               ; preds = %13
  %17 = and i32 %15, %12
  store i32 %17, ptr %14, align 4, !tbaa !15
  %indvars.iv.next = add nuw nsw i64 %indvars.iv, 1
  %.val = load i32, ptr %2, align 4, !tbaa !3
  %18 = sext i32 %.val to i64
  %19 = icmp slt i64 %indvars.iv.next, %18
  br i1 %19, label %13, label %.critedge, !llvm.loop !30

.critedge:                                        ; preds = %16, %13, %Kit_SopCommonCube.exit, %1
  ret void
}